target datalayout = "e-m:e-p270:32:32-p271:32:32-p272:64:64-i64:64-i128:128-f80:128-n8:16:32:64-S128"
target triple = "x86_64-pc-linux-gnu"

%struct._zend_array = type { %struct._zend_refcounted_h, %union.anon.0, i32, %union.anon.1, i32, i32, i32, i32, i64, ptr }
%struct._zend_refcounted_h = type { i32, %union.anon }
%union.anon = type { i32 }
%union.anon.0 = type { i32 }
%union.anon.1 = type { ptr }
%struct._zend_string = type { %struct._zend_refcounted_h, i64, i64, [1 x i8] }
%struct._zval_struct = type { %union._zend_value, %union.anon.3, %union.anon.6 }
%union._zend_value = type { i64 }
%union.anon.3 = type { i32 }
%union.anon.6 = type { i32 }
%struct._Bucket = type { %struct._zval_struct, i64, ptr }

@interned_strings_permanent = internal global %struct._zend_array zeroinitializer, align 8

; Function Attrs: nounwind uwtable
define zeroext i1 @zend_string_equal_val(ptr noundef %0, ptr noundef %1) #0 {
  %3 = alloca ptr, align 8
  %4 = alloca ptr, align 8
  %5 = alloca ptr, align 8
  %6 = alloca i64, align 8
  %7 = alloca i64, align 8
  %8 = alloca i64, align 8
  store ptr %0, ptr %3, align 8
  store ptr %1, ptr %4, align 8
  %9 = load ptr, ptr %3, align 8
  %10 = getelementptr inbounds %struct._zend_string, ptr %9, i32 0, i32 3
  %11 = getelementptr inbounds [1 x i8], ptr %10, i64 0, i64 0
  store ptr %11, ptr %5, align 8
  %12 = load ptr, ptr %4, align 8
  %13 = load ptr, ptr %3, align 8
  %14 = ptrtoint ptr %12 to i64
  %15 = ptrtoint ptr %13 to i64
  %16 = sub i64 %14, %15
  store i64 %16, ptr %6, align 8
  %17 = load ptr, ptr %3, align 8
  %18 = getelementptr inbounds %struct._zend_string, ptr %17, i32 0, i32 2
  %19 = load i64, ptr %18, align 8
  store i64 %19, ptr %7, align 8
  %20 = load i64, ptr %7, align 8
  %21 = load ptr, ptr %5, align 8
  %22 = load i64, ptr %6, align 8
  %23 = call { i64, i64, ptr } asm ".LL0${:uid}:\0A\09movq ($2,$3), $0\0A\09xorq ($2), $0\0A\09jne .LL1${:uid}\0A\09addq $$0x8, $2\0A\09subq $$0x8, $1\0A\09ja .LL0${:uid}\0A\09movq $$0x1, $0\0A\09jmp .LL3${:uid}\0A\09.LL1${:uid}:\0A\09cmpq $$0x8,$1\0A\09jb .LL2${:uid}\0A\09xorq $0, $0\0A\09jmp .LL3${:uid}\0A\09.LL2${:uid}:\0A\09negq $1\0A\09lea 0x40(,$1,8), $1\0A\09shlq ${1:b}, $0\0A\09sete ${0:b}\0A\09movzbq ${0:b}, $0\0A\09.LL3${:uid}:\0A", "=&{ax},={cx},=r,r,1,2,~{cc},~{dirflag},~{fpsr},~{flags}"(i64 %22, i64 %20, ptr %21) #12, !srcloc !4
  %24 = extractvalue { i64, i64, ptr } %23, 0
  %25 = extractvalue { i64, i64, ptr } %23, 1
  %26 = extractvalue { i64, i64, ptr } %23, 2
  store i64 %24, ptr %8, align 8
  store i64 %25, ptr %7, align 8
  store ptr %26, ptr %5, align 8
  %27 = load i64, ptr %8, align 8
  %28 = icmp ne i64 %27, 0
  ret i1 %28
}

; Function Attrs: nounwind uwtable
define i64 @zend_string_hash_func(ptr noundef %0) #0 {
  %2 = alloca ptr, align 8
  store ptr %0, ptr %2, align 8
  %3 = load ptr, ptr %2, align 8
  %4 = getelementptr inbounds %struct._zend_string, ptr %3, i32 0, i32 3
  %5 = getelementptr inbounds [1 x i8], ptr %4, i64 0, i64 0
  %6 = load ptr, ptr %2, align 8
  %7 = getelementptr inbounds %struct._zend_string, ptr %6, i32 0, i32 2
  %8 = load i64, ptr %7, align 8
  %9 = call i64 @zend_hash_func(ptr noundef %5, i64 noundef %8)
  %10 = load ptr, ptr %2, align 8
  %11 = getelementptr inbounds %struct._zend_string, ptr %10, i32 0, i32 1
  store i64 %9, ptr %11, align 8
  ret i64 %9
}

; Function Attrs: nounwind uwtable
define ptr @zend_interned_string_find_permanent(ptr noundef %0) #0 {
  %2 = alloca ptr, align 8
  %3 = alloca ptr, align 8
  %4 = alloca ptr, align 8
  %5 = alloca ptr, align 8
  %6 = alloca ptr, align 8
  %7 = alloca i64, align 8
  %8 = alloca i32, align 4
  %9 = alloca i32, align 4
  %10 = alloca ptr, align 8
  %11 = alloca ptr, align 8
  %12 = alloca ptr, align 8
  store ptr %0, ptr %12, align 8
  %13 = load ptr, ptr %12, align 8
  store ptr %13, ptr %11, align 8
  %14 = load ptr, ptr %11, align 8
  %15 = getelementptr inbounds %struct._zend_string, ptr %14, i32 0, i32 1
  %16 = load i64, ptr %15, align 8
  %17 = icmp ne i64 %16, 0
  br i1 %17, label %18, label %19

18:                                               ; preds = %1
  br label %22

19:                                               ; preds = %1
  %20 = load ptr, ptr %11, align 8
  %21 = call i64 @zend_string_hash_func(ptr noundef %20)
  br label %22

22:                                               ; preds = %19, %18
  %23 = load ptr, ptr %12, align 8
  store ptr %23, ptr %5, align 8
  store ptr @interned_strings_permanent, ptr %6, align 8
  %24 = load ptr, ptr %5, align 8
  %25 = getelementptr inbounds %struct._zend_string, ptr %24, i32 0, i32 1
  %26 = load i64, ptr %25, align 8
  store i64 %26, ptr %7, align 8
  %27 = load i64, ptr %7, align 8
  %28 = load ptr, ptr %6, align 8
  %29 = getelementptr inbounds %struct._zend_array, ptr %28, i32 0, i32 2
  %30 = load i32, ptr %29, align 4
  %31 = zext i32 %30 to i64
  %32 = or i64 %27, %31
  %33 = trunc i64 %32 to i32
  store i32 %33, ptr %8, align 4
  %34 = load ptr, ptr %6, align 8
  %35 = getelementptr inbounds %struct._zend_array, ptr %34, i32 0, i32 3
  %36 = load ptr, ptr %35, align 8
  %37 = load i32, ptr %8, align 4
  %38 = sext i32 %37 to i64
  %39 = getelementptr inbounds i32, ptr %36, i64 %38
  %40 = load i32, ptr %39, align 4
  store i32 %40, ptr %9, align 4
  br label %41

41:                                               ; preds = %78, %22
  %42 = load i32, ptr %9, align 4
  %43 = icmp ne i32 %42, -1
  br i1 %43, label %44, label %82

44:                                               ; preds = %41
  %45 = load ptr, ptr %6, align 8
  %46 = getelementptr inbounds %struct._zend_array, ptr %45, i32 0, i32 3
  %47 = load ptr, ptr %46, align 8
  %48 = load i32, ptr %9, align 4
  %49 = zext i32 %48 to i64
  %50 = getelementptr inbounds %struct._Bucket, ptr %47, i64 %49
  store ptr %50, ptr %10, align 8
  %51 = load ptr, ptr %10, align 8
  %52 = getelementptr inbounds %struct._Bucket, ptr %51, i32 0, i32 1
  %53 = load i64, ptr %52, align 8
  %54 = load i64, ptr %7, align 8
  %55 = icmp eq i64 %53, %54
  br i1 %55, label %56, label %78

56:                                               ; preds = %44
  %57 = load ptr, ptr %10, align 8
  %58 = getelementptr inbounds %struct._Bucket, ptr %57, i32 0, i32 2
  %59 = load ptr, ptr %58, align 8
  %60 = load ptr, ptr %5, align 8
  store ptr %59, ptr %2, align 8
  store ptr %60, ptr %3, align 8
  %61 = load ptr, ptr %2, align 8
  %62 = getelementptr inbounds %struct._zend_string, ptr %61, i32 0, i32 2
  %63 = load i64, ptr %62, align 8
  %64 = load ptr, ptr %3, align 8
  %65 = getelementptr inbounds %struct._zend_string, ptr %64, i32 0, i32 2
  %66 = load i64, ptr %65, align 8
  %67 = icmp eq i64 %63, %66
  br i1 %67, label %68, label %72

68:                                               ; preds = %56
  %69 = load ptr, ptr %2, align 8
  %70 = load ptr, ptr %3, align 8
  %71 = call zeroext i1 @zend_string_equal_val(ptr noundef %69, ptr noundef %70)
  br label %72

72:                                               ; preds = %68, %56
  %73 = phi i1 [ false, %56 ], [ %71, %68 ]
  br i1 %73, label %74, label %78

74:                                               ; preds = %72
  %75 = load ptr, ptr %10, align 8
  %76 = getelementptr inbounds %struct._Bucket, ptr %75, i32 0, i32 2
  %77 = load ptr, ptr %76, align 8
  store ptr %77, ptr %4, align 8
  br label %83

78:                                               ; preds = %72, %44
  %79 = load ptr, ptr %10, align 8
  %80 = getelementptr inbounds %struct._zval_struct, ptr %79, i32 0, i32 2
  %81 = load i32, ptr %80, align 4
  store i32 %81, ptr %9, align 4
  br label %41

82:                                               ; preds = %41
  store ptr null, ptr %4, align 8
  br label %83

83:                                               ; preds = %82, %74
  %84 = load ptr, ptr %4, align 8
  ret ptr %84
}