; Function Attrs: nounwind memory(read, argmem: readwrite, inaccessiblemem: none) uwtable
define ptr @zend_interned_string_find_permanent(ptr noundef %0) local_unnamed_addr #7 {
  %2 = getelementptr inbounds i8, ptr %0, i64 8
  %3 = load i64, ptr %2, align 8
  %.not = icmp eq i64 %3, 0
  br i1 %.not, label %4, label %9

4:                                                ; preds = %1
  %5 = getelementptr inbounds i8, ptr %0, i64 24
  %6 = getelementptr inbounds i8, ptr %0, i64 16
  %7 = load i64, ptr %6, align 8
  %8 = tail call i64 @zend_hash_func(ptr noundef nonnull %5, i64 noundef %7), !range !4
  store i64 %8, ptr %2, align 8
  br label %9

9:                                                ; preds = %1, %4
  %10 = phi i64 [ %3, %1 ], [ %8, %4 ]
  %11 = load i32, ptr getelementptr inbounds (%struct._zend_array, ptr @interned_strings_permanent, i64 0, i32 2), align 4
  %12 = trunc i64 %10 to i32
  %13 = or i32 %11, %12
  %14 = load ptr, ptr getelementptr inbounds (%struct._zend_array, ptr @interned_strings_permanent, i64 0, i32 3), align 8
  %15 = sext i32 %13 to i64
  %16 = getelementptr inbounds i32, ptr %14, i64 %15
  %.02225 = load i32, ptr %16, align 4
  %.not2326 = icmp eq i32 %.02225, -1
  br i1 %.not2326, label %._crit_edge, label %.lr.ph

.lr.ph:                                           ; preds = %9
  %17 = getelementptr inbounds i8, ptr %0, i64 16
  %18 = ptrtoint ptr %0 to i64
  br label %19

19:                                               ; preds = %.lr.ph, %.critedge
  %.02227 = phi i32 [ %.02225, %.lr.ph ], [ %.022, %.critedge ]
  %20 = zext i32 %.02227 to i64
  %21 = getelementptr inbounds %struct._Bucket, ptr %14, i64 %20
  %22 = getelementptr inbounds i8, ptr %21, i64 16
  %23 = load i64, ptr %22, align 8
  %24 = icmp eq i64 %23, %10
  br i1 %24, label %25, label %.critedge

25:                                               ; preds = %19
  %26 = getelementptr inbounds i8, ptr %21, i64 24
  %27 = load ptr, ptr %26, align 8
  %28 = getelementptr inbounds i8, ptr %27, i64 16
  %29 = load i64, ptr %28, align 8
  %30 = load i64, ptr %17, align 8
  %31 = icmp eq i64 %29, %30
  br i1 %31, label %32, label %.critedge

32:                                               ; preds = %25
  %33 = getelementptr inbounds i8, ptr %27, i64 24
  %34 = ptrtoint ptr %27 to i64
  %35 = sub i64 %18, %34
  %36 = tail call { i64, i64, ptr } asm ".LL0${:uid}:\0A\09movq ($2,$3), $0\0A\09xorq ($2), $0\0A\09jne .LL1${:uid}\0A\09addq $$0x8, $2\0A\09subq $$0x8, $1\0A\09ja .LL0${:uid}\0A\09movq $$0x1, $0\0A\09jmp .LL3${:uid}\0A\09.LL1${:uid}:\0A\09cmpq $$0x8,$1\0A\09jb .LL2${:uid}\0A\09xorq $0, $0\0A\09jmp .LL3${:uid}\0A\09.LL2${:uid}:\0A\09negq $1\0A\09lea 0x40(,$1,8), $1\0A\09shlq ${1:b}, $0\0A\09sete ${0:b}\0A\09movzbq ${0:b}, $0\0A\09.LL3${:uid}:\0A", "=&{ax},={cx},=r,r,1,2,~{cc},~{dirflag},~{fpsr},~{flags}"(i64 %35, i64 %29, ptr nonnull %33) #19, !srcloc !5
  %37 = extractvalue { i64, i64, ptr } %36, 0
  %.not24 = icmp eq i64 %37, 0
  br i1 %.not24, label %.critedge, label %._crit_edge

.critedge:                                        ; preds = %25, %32, %19
  %38 = getelementptr inbounds i8, ptr %21, i64 12
  %.022 = load i32, ptr %38, align 4
  %.not23 = icmp eq i32 %.022, -1
  br i1 %.not23, label %._crit_edge, label %19

._crit_edge:                                      ; preds = %.critedge, %32, %9
  %.0 = phi ptr [ null, %9 ], [ %27, %32 ], [ null, %.critedge ]
  ret ptr %.0
}